target datalayout = "e-m:e-p270:32:32-p271:32:32-p272:64:64-i64:64-i128:128-f80:128-n8:16:32:64-S128"
target triple = "x86_64-pc-linux-gnu"

; Function Attrs: mustprogress nounwind uwtable
define i32 @T_CString_int64ToString_77(ptr noundef %0, i64 noundef %1, i32 noundef %2) #0 {
  %4 = alloca ptr, align 8
  %5 = alloca i64, align 8
  %6 = alloca i32, align 4
  %7 = alloca [30 x i8], align 16
  %8 = alloca i32, align 4
  %9 = alloca i8, align 1
  %10 = alloca i32, align 4
  %11 = alloca i64, align 8
  store ptr %0, ptr %4, align 8, !tbaa !6
  store i64 %1, ptr %5, align 8, !tbaa !15
  store i32 %2, ptr %6, align 4, !tbaa !12
  call void @llvm.lifetime.start.p0(i64 30, ptr %7) #7
  call void @llvm.lifetime.start.p0(i64 4, ptr %8) #7
  store i32 30, ptr %8, align 4, !tbaa !12
  call void @llvm.lifetime.start.p0(i64 1, ptr %9) #7
  call void @llvm.lifetime.start.p0(i64 4, ptr %10) #7
  store i32 0, ptr %10, align 4, !tbaa !12
  call void @llvm.lifetime.start.p0(i64 8, ptr %11) #7
  %12 = load i64, ptr %5, align 8, !tbaa !15
  store i64 %12, ptr %11, align 8, !tbaa !15
  %13 = load i64, ptr %5, align 8, !tbaa !15
  %14 = icmp slt i64 %13, 0
  br i1 %14, label %15, label %26

15:                                               ; preds = %3
  %16 = load i32, ptr %6, align 4, !tbaa !12
  %17 = icmp eq i32 %16, 10
  br i1 %17, label %18, label %26

18:                                               ; preds = %15
  %19 = load i64, ptr %5, align 8, !tbaa !15
  %20 = sub nsw i64 0, %19
  store i64 %20, ptr %11, align 8, !tbaa !15
  %21 = load ptr, ptr %4, align 8, !tbaa !6
  %22 = load i32, ptr %10, align 4, !tbaa !12
  %23 = add nsw i32 %22, 1
  store i32 %23, ptr %10, align 4, !tbaa !12
  %24 = sext i32 %22 to i64
  %25 = getelementptr inbounds i8, ptr %21, i64 %24
  store i8 45, ptr %25, align 1, !tbaa !3
  br label %26

26:                                               ; preds = %18, %15, %3
  store i32 29, ptr %8, align 4, !tbaa !12
  %27 = load i32, ptr %8, align 4, !tbaa !12
  %28 = sext i32 %27 to i64
  %29 = getelementptr inbounds [30 x i8], ptr %7, i64 0, i64 %28
  store i8 0, ptr %29, align 1, !tbaa !3
  br label %30

30:                                               ; preds = %59, %26
  %31 = load i64, ptr %11, align 8, !tbaa !15
  %32 = load i32, ptr %6, align 4, !tbaa !12
  %33 = zext i32 %32 to i64
  %34 = urem i64 %31, %33
  %35 = trunc i64 %34 to i8
  store i8 %35, ptr %9, align 1, !tbaa !3
  %36 = load i8, ptr %9, align 1, !tbaa !3
  %37 = zext i8 %36 to i32
  %38 = icmp sle i32 %37, 9
  br i1 %38, label %39, label %43

39:                                               ; preds = %30
  %40 = load i8, ptr %9, align 1, !tbaa !3
  %41 = zext i8 %40 to i32
  %42 = add nsw i32 48, %41
  br label %48

43:                                               ; preds = %30
  %44 = load i8, ptr %9, align 1, !tbaa !3
  %45 = zext i8 %44 to i32
  %46 = add nsw i32 65, %45
  %47 = sub nsw i32 %46, 10
  br label %48

48:                                               ; preds = %43, %39
  %49 = phi i32 [ %42, %39 ], [ %47, %43 ]
  %50 = trunc i32 %49 to i8
  %51 = load i32, ptr %8, align 4, !tbaa !12
  %52 = add nsw i32 %51, -1
  store i32 %52, ptr %8, align 4, !tbaa !12
  %53 = sext i32 %52 to i64
  %54 = getelementptr inbounds [30 x i8], ptr %7, i64 0, i64 %53
  store i8 %50, ptr %54, align 1, !tbaa !3
  %55 = load i64, ptr %11, align 8, !tbaa !15
  %56 = load i32, ptr %6, align 4, !tbaa !12
  %57 = zext i32 %56 to i64
  %58 = udiv i64 %55, %57
  store i64 %58, ptr %11, align 8, !tbaa !15
  br label %59

59:                                               ; preds = %48
  %60 = load i64, ptr %11, align 8, !tbaa !15
  %61 = icmp ne i64 %60, 0
  br i1 %61, label %30, label %62, !llvm.loop !17

62:                                               ; preds = %59
  %63 = load ptr, ptr %4, align 8, !tbaa !6
  %64 = load i32, ptr %10, align 4, !tbaa !12
  %65 = sext i32 %64 to i64
  %66 = getelementptr inbounds i8, ptr %63, i64 %65
  %67 = getelementptr inbounds [30 x i8], ptr %7, i64 0, i64 0
  %68 = load i32, ptr %8, align 4, !tbaa !12
  %69 = sext i32 %68 to i64
  %70 = getelementptr inbounds i8, ptr %67, i64 %69
  %71 = call ptr @strcpy(ptr noundef %66, ptr noundef %70) #7
  %72 = load i32, ptr %8, align 4, !tbaa !12
  %73 = sext i32 %72 to i64
  %74 = sub i64 30, %73
  %75 = sub i64 %74, 1
  %76 = load i32, ptr %10, align 4, !tbaa !12
  %77 = sext i32 %76 to i64
  %78 = add i64 %77, %75
  %79 = trunc i64 %78 to i32
  store i32 %79, ptr %10, align 4, !tbaa !12
  %80 = load i32, ptr %10, align 4, !tbaa !12
  call void @llvm.lifetime.end.p0(i64 8, ptr %11) #7
  call void @llvm.lifetime.end.p0(i64 4, ptr %10) #7
  call void @llvm.lifetime.end.p0(i64 1, ptr %9) #7
  call void @llvm.lifetime.end.p0(i64 4, ptr %8) #7
  call void @llvm.lifetime.end.p0(i64 30, ptr %7) #7
  ret i32 %80
}