; Function Attrs: mustprogress nofree nounwind memory(argmem: readwrite) uwtable
define i32 @T_CString_int64ToString_77(ptr noundef %0, i64 noundef %1, i32 noundef %2) local_unnamed_addr #3 {
  %4 = alloca [30 x i8], align 16
  call void @llvm.lifetime.start.p0(i64 30, ptr nonnull %4) #12
  %5 = icmp slt i64 %1, 0
  %6 = icmp eq i32 %2, 10
  %or.cond = and i1 %5, %6
  br i1 %or.cond, label %7, label %9

7:                                                ; preds = %3
  %8 = sub nsw i64 0, %1
  store i8 45, ptr %0, align 1, !tbaa !3
  br label %9

9:                                                ; preds = %7, %3
  %.022 = phi i64 [ 1, %7 ], [ 0, %3 ]
  %.0 = phi i64 [ %8, %7 ], [ %1, %3 ]
  %10 = getelementptr inbounds nuw i8, ptr %4, i64 29
  store i8 0, ptr %10, align 1, !tbaa !3
  %11 = zext i32 %2 to i64
  br label %12

12:                                               ; preds = %12, %9
  %indvars.iv = phi i64 [ %indvars.iv.next, %12 ], [ 29, %9 ]
  %.1 = phi i64 [ %22, %12 ], [ %.0, %9 ]
  %13 = urem i64 %.1, %11
  %14 = trunc nuw i64 %13 to i32
  %15 = and i32 %14, 254
  %16 = icmp samesign ult i32 %15, 10
  %17 = or i32 %14, 48
  %18 = add i32 %14, 55
  %19 = select i1 %16, i32 %17, i32 %18
  %20 = trunc i32 %19 to i8
  %indvars.iv.next = add nsw i64 %indvars.iv, -1
  %21 = getelementptr inbounds [30 x i8], ptr %4, i64 0, i64 %indvars.iv.next
  store i8 %20, ptr %21, align 1, !tbaa !3
  %22 = udiv i64 %.1, %11
  %.not = icmp ult i64 %.1, %11
  br i1 %.not, label %23, label %12, !llvm.loop !10

23:                                               ; preds = %12
  %24 = getelementptr inbounds [30 x i8], ptr %4, i64 0, i64 %indvars.iv.next
  %25 = trunc nsw i64 %indvars.iv to i32
  %26 = getelementptr inbounds nuw i8, ptr %0, i64 %.022
  %27 = call ptr @strcpy(ptr noundef nonnull dereferenceable(1) %26, ptr noundef nonnull dereferenceable(1) %24) #12
  %28 = trunc nuw nsw i64 %.022 to i32
  %29 = sub i32 %28, %25
  %30 = add i32 %29, 30
  call void @llvm.lifetime.end.p0(i64 30, ptr nonnull %4) #12
  ret i32 %30
}